; Function Attrs: mustprogress nofree norecurse nosync nounwind willreturn memory(read, inaccessiblemem: none) uwtable
define i32 @Iso_ObjCompareByData(ptr noundef readonly captures(none) %0, ptr noundef readonly captures(none) %1) #12 {
  %3 = load ptr, ptr %0, align 8, !tbaa !64
  %4 = load ptr, ptr %1, align 8, !tbaa !64
  %5 = getelementptr inbounds nuw i8, ptr %3, i64 40
  %6 = load i32, ptr %5, align 8, !tbaa !12
  %7 = getelementptr inbounds nuw i8, ptr %4, i64 40
  %8 = load i32, ptr %7, align 8, !tbaa !12
  %9 = sub nsw i32 %6, %8
  ret i32 %9
}